; Function Attrs: nounwind uwtable
define void @Abc_FrameGiaInputMiniAig(ptr noundef %0, ptr noundef readonly captures(none) %1) local_unnamed_addr #2 {
  %3 = icmp eq ptr %0, null
  br i1 %3, label %4, label %5

4:                                                ; preds = %2
  %puts = tail call i32 @puts(ptr nonnull dereferenceable(1) @str.20)
  br label %5

5:                                                ; preds = %4, %2
  %6 = getelementptr inbounds nuw i8, ptr %0, i64 576
  tail call void @Gia_ManStopP(ptr noundef nonnull %6) #25
  %7 = getelementptr inbounds nuw i8, ptr %0, i64 592
  %8 = load ptr, ptr %7, align 8, !tbaa !38
  %9 = icmp eq ptr %8, null
  br i1 %9, label %Vec_IntFreeP.exit, label %10

10:                                               ; preds = %5
  %11 = getelementptr inbounds nuw i8, ptr %8, i64 8
  %12 = load ptr, ptr %11, align 8, !tbaa !11
  %.not.i = icmp eq ptr %12, null
  br i1 %.not.i, label %15, label %.thread.i

.thread.i:                                        ; preds = %10
  tail call void @free(ptr noundef nonnull %12) #25
  %13 = load ptr, ptr %7, align 8, !tbaa !38
  %14 = getelementptr inbounds nuw i8, ptr %13, i64 8
  store ptr null, ptr %14, align 8, !tbaa !11
  br label %15

15:                                               ; preds = %.thread.i, %10
  %16 = phi ptr [ %13, %.thread.i ], [ %8, %10 ]
  tail call void @free(ptr noundef nonnull %16) #25
  store ptr null, ptr %7, align 8, !tbaa !38
  br label %Vec_IntFreeP.exit

Vec_IntFreeP.exit:                                ; preds = %5, %15
  %17 = tail call ptr @Gia_ManFromMiniAig(ptr noundef %1, ptr noundef nonnull %7, i32 noundef 0)
  tail call void @Abc_FrameUpdateGia(ptr noundef nonnull %0, ptr noundef %17) #25
  %18 = tail call ptr @Gia_ManDup(ptr noundef %17) #25
  store ptr %18, ptr %6, align 8, !tbaa !52
  ret void
}